; Function Attrs: mustprogress uwtable
define internal noundef zeroext i1 @_ZNSt17_Function_handlerIFbPN3dap12DeserializerEEZN12_GLOBAL__N_14Impl12processEventEPNS0_4json19JsonCppDeserializerEEUlS2_E_E9_M_invokeERKSt9_Any_dataOS2_(ptr nocapture noundef nonnull readonly align 8 dereferenceable(16) %0, ptr nocapture noundef nonnull readonly align 8 dereferenceable(8) %1) #0 align 2 {
  %.val = load ptr, ptr %0, align 8
  %.val2 = load ptr, ptr %1, align 8
  %3 = load ptr, ptr %.val, align 8
  %4 = load ptr, ptr %3, align 8
  %5 = getelementptr inbounds i8, ptr %.val, i64 8
  %6 = load ptr, ptr %5, align 8
  %7 = load ptr, ptr %6, align 8
  %8 = load ptr, ptr %4, align 8
  %9 = getelementptr inbounds i8, ptr %8, i64 64
  %10 = load ptr, ptr %9, align 8
  %11 = tail call noundef zeroext i1 %10(ptr noundef nonnull align 8 dereferenceable(8) %4, ptr noundef %.val2, ptr noundef %7)
  br i1 %11, label %_ZSt10__invoke_rIbRZN12_GLOBAL__N_14Impl12processEventEPN3dap4json19JsonCppDeserializerEEUlPNS2_12DeserializerEE_JS7_EENSt9enable_ifIX16is_invocable_r_vIT_T0_DpT1_EESB_E4typeEOSC_DpOSD_.exit, label %12

12:                                               ; preds = %2
  %13 = getelementptr inbounds i8, ptr %.val, i64 16
  %14 = load ptr, ptr %13, align 8
  store i8 0, ptr %14, align 1
  br label %_ZSt10__invoke_rIbRZN12_GLOBAL__N_14Impl12processEventEPN3dap4json19JsonCppDeserializerEEUlPNS2_12DeserializerEE_JS7_EENSt9enable_ifIX16is_invocable_r_vIT_T0_DpT1_EESB_E4typeEOSC_DpOSD_.exit

_ZSt10__invoke_rIbRZN12_GLOBAL__N_14Impl12processEventEPN3dap4json19JsonCppDeserializerEEUlPNS2_12DeserializerEE_JS7_EENSt9enable_ifIX16is_invocable_r_vIT_T0_DpT1_EESB_E4typeEOSC_DpOSD_.exit: ; preds = %2, %12
  ret i1 true
}